target datalayout = "e-m:e-p270:32:32-p271:32:32-p272:64:64-i64:64-i128:128-f80:128-n8:16:32:64-S128"
target triple = "x86_64-pc-linux-gnu"

; Function Attrs: mustprogress uwtable
define dso_local noundef zeroext i1 @_ZN5ImGui11InputDoubleEPKcPdddS1_i(ptr noundef %0, ptr noundef %1, double noundef %2, double noundef %3, ptr noundef %4, i32 noundef %5) #8 {
  %7 = alloca ptr, align 8
  %8 = alloca ptr, align 8
  %9 = alloca double, align 8
  %10 = alloca double, align 8
  %11 = alloca ptr, align 8
  %12 = alloca i32, align 4
  store ptr %0, ptr %7, align 8, !tbaa !4
  store ptr %1, ptr %8, align 8, !tbaa !392
  store double %2, ptr %9, align 8, !tbaa !383
  store double %3, ptr %10, align 8, !tbaa !383
  store ptr %4, ptr %11, align 8, !tbaa !4
  store i32 %5, ptr %12, align 4, !tbaa !9
  %13 = load ptr, ptr %7, align 8, !tbaa !4
  %14 = load ptr, ptr %8, align 8, !tbaa !392
  %15 = load double, ptr %9, align 8, !tbaa !383
  %16 = fcmp ogt double %15, 0.000000e+00
  br i1 %16, label %17, label %18

17:                                               ; preds = %6
  br label %19

18:                                               ; preds = %6
  br label %19

19:                                               ; preds = %18, %17
  %20 = phi ptr [ %9, %17 ], [ null, %18 ]
  %21 = load double, ptr %10, align 8, !tbaa !383
  %22 = fcmp ogt double %21, 0.000000e+00
  br i1 %22, label %23, label %24

23:                                               ; preds = %19
  br label %25

24:                                               ; preds = %19
  br label %25

25:                                               ; preds = %24, %23
  %26 = phi ptr [ %10, %23 ], [ null, %24 ]
  %27 = load ptr, ptr %11, align 8, !tbaa !4
  %28 = load i32, ptr %12, align 4, !tbaa !9
  %29 = call noundef zeroext i1 @_ZN5ImGui11InputScalarEPKciPvPKvS4_S1_i(ptr noundef %13, i32 noundef 9, ptr noundef %14, ptr noundef %20, ptr noundef %26, ptr noundef %27, i32 noundef %28)
  ret i1 %29
}