; Function Attrs: mustprogress uwtable
define dso_local noundef zeroext i1 @_ZN5ImGui11InputDoubleEPKcPdddS1_i(ptr noundef %0, ptr noundef %1, double noundef %2, double noundef %3, ptr noundef %4, i32 noundef %5) local_unnamed_addr #5 {
  %7 = alloca double, align 8
  %8 = alloca double, align 8
  store double %2, ptr %7, align 8, !tbaa !341
  store double %3, ptr %8, align 8, !tbaa !341
  %9 = fcmp ogt double %2, 0.000000e+00
  %. = select i1 %9, ptr %7, ptr null
  %10 = fcmp ogt double %3, 0.000000e+00
  %11 = select i1 %10, ptr %8, ptr null
  %12 = call noundef zeroext i1 @_ZN5ImGui11InputScalarEPKciPvPKvS4_S1_i(ptr noundef %0, i32 noundef 9, ptr noundef %1, ptr noundef %., ptr noundef %11, ptr noundef %4, i32 noundef %5)
  ret i1 %12
}